; ModuleID = '19/742.c'
source_filename = "19/742.c"
target datalayout = "e-m:e-p270:32:32-p271:32:32-p272:64:64-i64:64-f80:128-n8:16:32:64-S128"
target triple = "x86_64-pc-linux-gnu"

@.str = private unnamed_addr constant [3 x i8] c"%c\00", align 1

; Function Attrs: noinline nounwind uwtable
define dso_local i32 @main() #0 {
  %1 = alloca i32, align 4
  %2 = alloca i32, align 4
  %3 = alloca i32, align 4
  %4 = alloca i32, align 4
  %5 = alloca i32, align 4
  %6 = alloca i32, align 4
  %7 = alloca i32, align 4
  %8 = alloca i32, align 4
  %9 = alloca i32, align 4
  %10 = alloca [200 x i8], align 16
  %11 = alloca [100 x i8], align 16
  %12 = alloca [100 x i8], align 16
  %13 = alloca [300 x i8], align 16
  store i32 0, i32* %1, align 4
  store i32 0, i32* %7, align 4
  store i32 0, i32* %9, align 4
  %14 = getelementptr inbounds [200 x i8], [200 x i8]* %10, i64 0, i64 0
  %15 = call i32 (i8*, ...) bitcast (i32 (...)* @gets to i32 (i8*, ...)*)(i8* %14)
  %16 = getelementptr inbounds [100 x i8], [100 x i8]* %11, i64 0, i64 0
  %17 = call i32 (i8*, ...) bitcast (i32 (...)* @gets to i32 (i8*, ...)*)(i8* %16)
  %18 = getelementptr inbounds [100 x i8], [100 x i8]* %12, i64 0, i64 0
  %19 = call i32 (i8*, ...) bitcast (i32 (...)* @gets to i32 (i8*, ...)*)(i8* %18)
  %20 = getelementptr inbounds [200 x i8], [200 x i8]* %10, i64 0, i64 0
  %21 = call i64 @strlen(i8* %20) #3
  %22 = trunc i64 %21 to i32
  store i32 %22, i32* %2, align 4
  %23 = getelementptr inbounds [100 x i8], [100 x i8]* %11, i64 0, i64 0
  %24 = call i64 @strlen(i8* %23) #3
  %25 = trunc i64 %24 to i32
  store i32 %25, i32* %3, align 4
  %26 = getelementptr inbounds [100 x i8], [100 x i8]* %12, i64 0, i64 0
  %27 = call i64 @strlen(i8* %26) #3
  %28 = trunc i64 %27 to i32
  store i32 %28, i32* %4, align 4
  store i32 0, i32* %5, align 4
  br label %29

29:                                               ; preds = %132, %0
  %30 = load i32, i32* %5, align 4
  %31 = load i32, i32* %2, align 4
  %32 = load i32, i32* %3, align 4
  %33 = add nsw i32 %31, %32
  %34 = icmp slt i32 %30, %33
  br i1 %34, label %35, label %133

35:                                               ; preds = %29
  %36 = load i32, i32* %9, align 4
  %37 = icmp eq i32 %36, 0
  br i1 %37, label %38, label %111

38:                                               ; preds = %35
  store i32 1, i32* %8, align 4
  %39 = load i32, i32* %5, align 4
  %40 = sext i32 %39 to i64
  %41 = getelementptr inbounds [200 x i8], [200 x i8]* %10, i64 0, i64 %40
  %42 = load i8, i8* %41, align 1
  %43 = sext i8 %42 to i32
  %44 = icmp eq i32 %43, 32
  br i1 %44, label %45, label %46

45:                                               ; preds = %38
  store i32 0, i32* %9, align 4
  br label %47

46:                                               ; preds = %38
  store i32 1, i32* %9, align 4
  br label %47

47:                                               ; preds = %46, %45
  store i32 0, i32* %6, align 4
  br label %48

48:                                               ; preds = %70, %47
  %49 = load i32, i32* %6, align 4
  %50 = load i32, i32* %3, align 4
  %51 = icmp slt i32 %49, %50
  br i1 %51, label %52, label %73

52:                                               ; preds = %48
  %53 = load i32, i32* %6, align 4
  %54 = sext i32 %53 to i64
  %55 = getelementptr inbounds [100 x i8], [100 x i8]* %11, i64 0, i64 %54
  %56 = load i8, i8* %55, align 1
  %57 = sext i8 %56 to i32
  %58 = load i32, i32* %5, align 4
  %59 = load i32, i32* %6, align 4
  %60 = add nsw i32 %58, %59
  %61 = sext i32 %60 to i64
  %62 = getelementptr inbounds [200 x i8], [200 x i8]* %10, i64 0, i64 %61
  %63 = load i8, i8* %62, align 1
  %64 = sext i8 %63 to i32
  %65 = icmp ne i32 %57, %64
  br i1 %65, label %66, label %69

66:                                               ; preds = %52
  %67 = load i32, i32* %8, align 4
  %68 = mul nsw i32 %67, 0
  store i32 %68, i32* %8, align 4
  br label %69

69:                                               ; preds = %66, %52
  br label %70

70:                                               ; preds = %69
  %71 = load i32, i32* %6, align 4
  %72 = add nsw i32 %71, 1
  store i32 %72, i32* %6, align 4
  br label %48

73:                                               ; preds = %48
  %74 = load i32, i32* %8, align 4
  %75 = icmp ne i32 %74, 1
  br i1 %75, label %76, label %88

76:                                               ; preds = %73
  %77 = load i32, i32* %5, align 4
  %78 = sext i32 %77 to i64
  %79 = getelementptr inbounds [200 x i8], [200 x i8]* %10, i64 0, i64 %78
  %80 = load i8, i8* %79, align 1
  %81 = load i32, i32* %7, align 4
  %82 = sext i32 %81 to i64
  %83 = getelementptr inbounds [300 x i8], [300 x i8]* %13, i64 0, i64 %82
  store i8 %80, i8* %83, align 1
  %84 = load i32, i32* %5, align 4
  %85 = add nsw i32 %84, 1
  store i32 %85, i32* %5, align 4
  %86 = load i32, i32* %7, align 4
  %87 = add nsw i32 %86, 1
  store i32 %87, i32* %7, align 4
  br label %110

88:                                               ; preds = %73
  store i32 0, i32* %6, align 4
  br label %89

89:                                               ; preds = %101, %88
  %90 = load i32, i32* %6, align 4
  %91 = load i32, i32* %4, align 4
  %92 = icmp slt i32 %90, %91
  br i1 %92, label %93, label %106

93:                                               ; preds = %89
  %94 = load i32, i32* %6, align 4
  %95 = sext i32 %94 to i64
  %96 = getelementptr inbounds [100 x i8], [100 x i8]* %12, i64 0, i64 %95
  %97 = load i8, i8* %96, align 1
  %98 = load i32, i32* %7, align 4
  %99 = sext i32 %98 to i64
  %100 = getelementptr inbounds [300 x i8], [300 x i8]* %13, i64 0, i64 %99
  store i8 %97, i8* %100, align 1
  br label %101

101:                                              ; preds = %93
  %102 = load i32, i32* %6, align 4
  %103 = add nsw i32 %102, 1
  store i32 %103, i32* %6, align 4
  %104 = load i32, i32* %7, align 4
  %105 = add nsw i32 %104, 1
  store i32 %105, i32* %7, align 4
  br label %89

106:                                              ; preds = %89
  %107 = load i32, i32* %3, align 4
  %108 = load i32, i32* %5, align 4
  %109 = add nsw i32 %108, %107
  store i32 %109, i32* %5, align 4
  br label %110

110:                                              ; preds = %106, %76
  br label %132

111:                                              ; preds = %35
  %112 = load i32, i32* %5, align 4
  %113 = sext i32 %112 to i64
  %114 = getelementptr inbounds [200 x i8], [200 x i8]* %10, i64 0, i64 %113
  %115 = load i8, i8* %114, align 1
  %116 = sext i8 %115 to i32
  %117 = icmp eq i32 %116, 32
  br i1 %117, label %118, label %119

118:                                              ; preds = %111
  store i32 0, i32* %9, align 4
  br label %120

119:                                              ; preds = %111
  store i32 1, i32* %9, align 4
  br label %120

120:                                              ; preds = %119, %118
  %121 = load i32, i32* %5, align 4
  %122 = sext i32 %121 to i64
  %123 = getelementptr inbounds [200 x i8], [200 x i8]* %10, i64 0, i64 %122
  %124 = load i8, i8* %123, align 1
  %125 = load i32, i32* %7, align 4
  %126 = sext i32 %125 to i64
  %127 = getelementptr inbounds [300 x i8], [300 x i8]* %13, i64 0, i64 %126
  store i8 %124, i8* %127, align 1
  %128 = load i32, i32* %7, align 4
  %129 = add nsw i32 %128, 1
  store i32 %129, i32* %7, align 4
  %130 = load i32, i32* %5, align 4
  %131 = add nsw i32 %130, 1
  store i32 %131, i32* %5, align 4
  br label %132

132:                                              ; preds = %120, %110
  br label %29

133:                                              ; preds = %29
  store i32 0, i32* %5, align 4
  br label %134

134:                                              ; preds = %147, %133
  %135 = load i32, i32* %5, align 4
  %136 = load i32, i32* %7, align 4
  %137 = load i32, i32* %3, align 4
  %138 = sub nsw i32 %136, %137
  %139 = icmp slt i32 %135, %138
  br i1 %139, label %140, label %150

140:                                              ; preds = %134
  %141 = load i32, i32* %5, align 4
  %142 = sext i32 %141 to i64
  %143 = getelementptr inbounds [300 x i8], [300 x i8]* %13, i64 0, i64 %142
  %144 = load i8, i8* %143, align 1
  %145 = sext i8 %144 to i32
  %146 = call i32 (i8*, ...) @printf(i8* getelementptr inbounds ([3 x i8], [3 x i8]* @.str, i64 0, i64 0), i32 %145)
  br label %147

147:                                              ; preds = %140
  %148 = load i32, i32* %5, align 4
  %149 = add nsw i32 %148, 1
  store i32 %149, i32* %5, align 4
  br label %134

150:                                              ; preds = %134
  %151 = load i32, i32* %1, align 4
  ret i32 %151
}

declare dso_local i32 @gets(...) #1

; Function Attrs: nounwind readonly
declare dso_local i64 @strlen(i8*) #2

declare dso_local i32 @printf(i8*, ...) #1


!llvm.module.flags = !{!0}
!llvm.ident = !{!1}

!0 = !{i32 1, !"wchar_size", i32 4}
!1 = !{!"clang version 10.0.0-4ubuntu1 "}
